; Function Attrs: mustprogress nounwind uwtable
define void @_ZN3gmx10done_lincsEPNS_5LincsE(ptr noundef %0) local_unnamed_addr #17 {
  %2 = icmp eq ptr %0, null
  br i1 %2, label %4, label %3

3:                                                ; preds = %1
  tail call void @_ZN3gmx5LincsD2Ev(ptr noundef nonnull align 8 dereferenceable(656) %0) #20
  tail call void @_ZdlPvm(ptr noundef nonnull %0, i64 noundef 656) #41
  br label %4

4:                                                ; preds = %3, %1
  ret void
}